(lp1
S'Look at that subtle off-white coloring. The tasteful thickness of it. Oh my God, it even has a watermark!'
p2
aS'Chaos reigns.'
p3
aS"They don't have a good bathroom to do coke in."
p4
aS'In order to make an apple pie from scratch, you must first create the universe.'
p5
aS'If we long to believe that the stars rise and set for us, that we are the reason there is a Universe, does science do us a disservice in deflating our conceits?'
p6
aS'The universe is not required to be in perfect harmony with human ambition.'
p7
aS'Once we overcome our fear of being tiny, we find ourselves on the threshold of a vast and awesome Universe that utterly  in time, in space, and in  the tidy anthropocentric proscenium of our ancestors.'
p8
aS'The white zone is for immediate loading and unloading of passengers only. There is no stopping in the red zone'
p9
aS'looks like I picked the wrong week to stop sniffing glue...'
p10
aS'The action potential is an electrical manipulation of reversible abrupt phase changes in the lipid bilayer of nerves.'
p11
aS'AND YOU WILL KNOW MY NAME IS THE LORD WHEN I LAY MY FINGERS UPON THEE'
p12
a.